target datalayout = "e-m:e-p270:32:32-p271:32:32-p272:64:64-i64:64-i128:128-f80:128-n8:16:32:64-S128"
target triple = "x86_64-pc-linux-gnu"

%struct.expert_field = type { i32, i32 }

@ett_bgp_mp_reach_nlri = internal global i32 0, align 4
@hf_bgp_ls_type = internal global i32 0, align 4
@hf_bgp_ls_length = internal global i32 0, align 4
@hf_bgp_ls_tlv_autonomous_system = internal global i32 0, align 4
@hf_bgp_ls_tlv_autonomous_system_id = internal global i32 0, align 4
@hf_bgp_ls_tlv_bgp_ls_identifier = internal global i32 0, align 4
@hf_bgp_ls_tlv_bgp_ls_identifier_id = internal global i32 0, align 4
@hf_bgp_ls_tlv_area_id = internal global i32 0, align 4
@hf_bgp_ls_tlv_area_id_id = internal global i32 0, align 4
@hf_bgp_ls_tlv_igp_router = internal global i32 0, align 4
@hf_bgp_ls_tlv_igp_router_id = internal global i32 0, align 4
@hf_bgp_ls_tlv_bgp_router_id = internal global i32 0, align 4
@hf_bgp_ls_tlv_bgp_router_id_id = internal global i32 0, align 4
@ei_bgp_ls_error = internal global %struct.expert_field zeroinitializer, align 4
@ei_bgp_ls_warn = internal global %struct.expert_field zeroinitializer, align 4
@.str.1838 = private unnamed_addr constant [38 x i8] c"Unknown data in Link-State Link NLRI!\00", align 1
@.str.1902 = private unnamed_addr constant [54 x i8] c"Autonomous system TLV length should be %u bytes! (%u)\00", align 1
@.str.1903 = private unnamed_addr constant [43 x i8] c"BGP-LS TLV length should be %u bytes! (%u)\00", align 1
@.str.1904 = private unnamed_addr constant [44 x i8] c"Area ID TLV length should be %u bytes! (%u)\00", align 1
@.str.1905 = private unnamed_addr constant [45 x i8] c"Undefined node Descriptor Sub-TLV type (%u)!\00", align 1

; Function Attrs: null_pointer_is_valid sspstrong uwtable
define internal i32 @decode_bgp_link_node_descriptor(ptr noundef %0, ptr noundef %1, i32 noundef %2, ptr noundef %3, i32 noundef %4) #0 {
  %6 = alloca ptr, align 8
  %7 = alloca ptr, align 8
  %8 = alloca i32, align 4
  %9 = alloca ptr, align 8
  %10 = alloca i32, align 4
  %11 = alloca i16, align 2
  %12 = alloca i16, align 2
  %13 = alloca i16, align 2
  %14 = alloca ptr, align 8
  %15 = alloca ptr, align 8
  store ptr %0, ptr %6, align 8
  store ptr %1, ptr %7, align 8
  store i32 %2, ptr %8, align 4
  store ptr %3, ptr %9, align 8
  store i32 %4, ptr %10, align 4
  call void @llvm.lifetime.start.p0(i64 2, ptr %11) #6
  call void @llvm.lifetime.start.p0(i64 2, ptr %12) #6
  call void @llvm.lifetime.start.p0(i64 2, ptr %13) #6
  call void @llvm.lifetime.start.p0(i64 8, ptr %14) #6
  call void @llvm.lifetime.start.p0(i64 8, ptr %15) #6
  store i16 0, ptr %13, align 2
  br label %16

16:                                               ; preds = %226, %5
  %17 = load i32, ptr %10, align 4
  %18 = icmp sgt i32 %17, 0
  br i1 %18, label %19, label %244

19:                                               ; preds = %16
  %20 = load i32, ptr %10, align 4
  %21 = icmp slt i32 %20, 4
  br i1 %21, label %22, label %31

22:                                               ; preds = %19
  %23 = load ptr, ptr %9, align 8
  %24 = load ptr, ptr %7, align 8
  %25 = call ptr (ptr, ptr, ptr, ptr, ...) @expert_add_info_format(ptr noundef %23, ptr noundef %24, ptr noundef @ei_bgp_ls_error, ptr noundef @.str.1838)
  %26 = load i32, ptr %10, align 4
  %27 = load i16, ptr %13, align 2
  %28 = zext i16 %27 to i32
  %29 = add i32 %28, %26
  %30 = trunc i32 %29 to i16
  store i16 %30, ptr %13, align 2
  br label %244

31:                                               ; preds = %19
  %32 = load ptr, ptr %6, align 8
  %33 = load i32, ptr %8, align 4
  %34 = call zeroext i16 @tvb_get_ntohs(ptr noundef %32, i32 noundef %33)
  store i16 %34, ptr %12, align 2
  %35 = load ptr, ptr %6, align 8
  %36 = load i32, ptr %8, align 4
  %37 = add i32 %36, 2
  %38 = call zeroext i16 @tvb_get_ntohs(ptr noundef %35, i32 noundef %37)
  store i16 %38, ptr %11, align 2
  %39 = load i16, ptr %12, align 2
  %40 = zext i16 %39 to i32
  switch i32 %40, label %220 [
    i32 512, label %41
    i32 513, label %80
    i32 514, label %119
    i32 515, label %158
    i32 516, label %189
  ]

41:                                               ; preds = %31
  %42 = load ptr, ptr %7, align 8
  %43 = load i32, ptr @hf_bgp_ls_tlv_autonomous_system, align 4
  %44 = load ptr, ptr %6, align 8
  %45 = load i32, ptr %8, align 4
  %46 = load i16, ptr %11, align 2
  %47 = zext i16 %46 to i32
  %48 = add i32 %47, 4
  %49 = call ptr @proto_tree_add_item(ptr noundef %42, i32 noundef %43, ptr noundef %44, i32 noundef %45, i32 noundef %48, i32 noundef 0)
  store ptr %49, ptr %14, align 8
  %50 = load ptr, ptr %14, align 8
  %51 = load i32, ptr @ett_bgp_mp_reach_nlri, align 4
  %52 = call ptr @proto_item_add_subtree(ptr noundef %50, i32 noundef %51)
  store ptr %52, ptr %15, align 8
  %53 = load ptr, ptr %15, align 8
  %54 = load i32, ptr @hf_bgp_ls_type, align 4
  %55 = load ptr, ptr %6, align 8
  %56 = load i32, ptr %8, align 4
  %57 = call ptr @proto_tree_add_item(ptr noundef %53, i32 noundef %54, ptr noundef %55, i32 noundef %56, i32 noundef 2, i32 noundef 0)
  %58 = load ptr, ptr %15, align 8
  %59 = load i32, ptr @hf_bgp_ls_length, align 4
  %60 = load ptr, ptr %6, align 8
  %61 = load i32, ptr %8, align 4
  %62 = add i32 %61, 2
  %63 = call ptr @proto_tree_add_item(ptr noundef %58, i32 noundef %59, ptr noundef %60, i32 noundef %62, i32 noundef 2, i32 noundef 0)
  %64 = load i16, ptr %11, align 2
  %65 = zext i16 %64 to i32
  %66 = icmp ne i32 %65, 4
  br i1 %66, label %67, label %73

67:                                               ; preds = %41
  %68 = load ptr, ptr %9, align 8
  %69 = load ptr, ptr %7, align 8
  %70 = load i16, ptr %11, align 2
  %71 = zext i16 %70 to i32
  %72 = call ptr (ptr, ptr, ptr, ptr, ...) @expert_add_info_format(ptr noundef %68, ptr noundef %69, ptr noundef @ei_bgp_ls_error, ptr noundef @.str.1902, i32 noundef 4, i32 noundef %71)
  br label %226

73:                                               ; preds = %41
  %74 = load ptr, ptr %15, align 8
  %75 = load i32, ptr @hf_bgp_ls_tlv_autonomous_system_id, align 4
  %76 = load ptr, ptr %6, align 8
  %77 = load i32, ptr %8, align 4
  %78 = add i32 %77, 4
  %79 = call ptr @proto_tree_add_item(ptr noundef %74, i32 noundef %75, ptr noundef %76, i32 noundef %78, i32 noundef 4, i32 noundef 0)
  br label %226

80:                                               ; preds = %31
  %81 = load ptr, ptr %7, align 8
  %82 = load i32, ptr @hf_bgp_ls_tlv_bgp_ls_identifier, align 4
  %83 = load ptr, ptr %6, align 8
  %84 = load i32, ptr %8, align 4
  %85 = load i16, ptr %11, align 2
  %86 = zext i16 %85 to i32
  %87 = add i32 %86, 4
  %88 = call ptr @proto_tree_add_item(ptr noundef %81, i32 noundef %82, ptr noundef %83, i32 noundef %84, i32 noundef %87, i32 noundef 0)
  store ptr %88, ptr %14, align 8
  %89 = load ptr, ptr %14, align 8
  %90 = load i32, ptr @ett_bgp_mp_reach_nlri, align 4
  %91 = call ptr @proto_item_add_subtree(ptr noundef %89, i32 noundef %90)
  store ptr %91, ptr %15, align 8
  %92 = load ptr, ptr %15, align 8
  %93 = load i32, ptr @hf_bgp_ls_type, align 4
  %94 = load ptr, ptr %6, align 8
  %95 = load i32, ptr %8, align 4
  %96 = call ptr @proto_tree_add_item(ptr noundef %92, i32 noundef %93, ptr noundef %94, i32 noundef %95, i32 noundef 2, i32 noundef 0)
  %97 = load ptr, ptr %15, align 8
  %98 = load i32, ptr @hf_bgp_ls_length, align 4
  %99 = load ptr, ptr %6, align 8
  %100 = load i32, ptr %8, align 4
  %101 = add i32 %100, 2
  %102 = call ptr @proto_tree_add_item(ptr noundef %97, i32 noundef %98, ptr noundef %99, i32 noundef %101, i32 noundef 2, i32 noundef 0)
  %103 = load i16, ptr %11, align 2
  %104 = zext i16 %103 to i32
  %105 = icmp ne i32 %104, 4
  br i1 %105, label %106, label %112

106:                                              ; preds = %80
  %107 = load ptr, ptr %9, align 8
  %108 = load ptr, ptr %7, align 8
  %109 = load i16, ptr %11, align 2
  %110 = zext i16 %109 to i32
  %111 = call ptr (ptr, ptr, ptr, ptr, ...) @expert_add_info_format(ptr noundef %107, ptr noundef %108, ptr noundef @ei_bgp_ls_error, ptr noundef @.str.1903, i32 noundef 4, i32 noundef %110)
  br label %226

112:                                              ; preds = %80
  %113 = load ptr, ptr %15, align 8
  %114 = load i32, ptr @hf_bgp_ls_tlv_bgp_ls_identifier_id, align 4
  %115 = load ptr, ptr %6, align 8
  %116 = load i32, ptr %8, align 4
  %117 = add i32 %116, 4
  %118 = call ptr @proto_tree_add_item(ptr noundef %113, i32 noundef %114, ptr noundef %115, i32 noundef %117, i32 noundef 4, i32 noundef 0)
  br label %226

119:                                              ; preds = %31
  %120 = load ptr, ptr %7, align 8
  %121 = load i32, ptr @hf_bgp_ls_tlv_area_id, align 4
  %122 = load ptr, ptr %6, align 8
  %123 = load i32, ptr %8, align 4
  %124 = load i16, ptr %11, align 2
  %125 = zext i16 %124 to i32
  %126 = add i32 %125, 4
  %127 = call ptr @proto_tree_add_item(ptr noundef %120, i32 noundef %121, ptr noundef %122, i32 noundef %123, i32 noundef %126, i32 noundef 0)
  store ptr %127, ptr %14, align 8
  %128 = load ptr, ptr %14, align 8
  %129 = load i32, ptr @ett_bgp_mp_reach_nlri, align 4
  %130 = call ptr @proto_item_add_subtree(ptr noundef %128, i32 noundef %129)
  store ptr %130, ptr %15, align 8
  %131 = load ptr, ptr %15, align 8
  %132 = load i32, ptr @hf_bgp_ls_type, align 4
  %133 = load ptr, ptr %6, align 8
  %134 = load i32, ptr %8, align 4
  %135 = call ptr @proto_tree_add_item(ptr noundef %131, i32 noundef %132, ptr noundef %133, i32 noundef %134, i32 noundef 2, i32 noundef 0)
  %136 = load ptr, ptr %15, align 8
  %137 = load i32, ptr @hf_bgp_ls_length, align 4
  %138 = load ptr, ptr %6, align 8
  %139 = load i32, ptr %8, align 4
  %140 = add i32 %139, 2
  %141 = call ptr @proto_tree_add_item(ptr noundef %136, i32 noundef %137, ptr noundef %138, i32 noundef %140, i32 noundef 2, i32 noundef 0)
  %142 = load i16, ptr %11, align 2
  %143 = zext i16 %142 to i32
  %144 = icmp ne i32 %143, 4
  br i1 %144, label %145, label %151

145:                                              ; preds = %119
  %146 = load ptr, ptr %9, align 8
  %147 = load ptr, ptr %7, align 8
  %148 = load i16, ptr %11, align 2
  %149 = zext i16 %148 to i32
  %150 = call ptr (ptr, ptr, ptr, ptr, ...) @expert_add_info_format(ptr noundef %146, ptr noundef %147, ptr noundef @ei_bgp_ls_error, ptr noundef @.str.1904, i32 noundef 4, i32 noundef %149)
  br label %226

151:                                              ; preds = %119
  %152 = load ptr, ptr %15, align 8
  %153 = load i32, ptr @hf_bgp_ls_tlv_area_id_id, align 4
  %154 = load ptr, ptr %6, align 8
  %155 = load i32, ptr %8, align 4
  %156 = add i32 %155, 4
  %157 = call ptr @proto_tree_add_item(ptr noundef %152, i32 noundef %153, ptr noundef %154, i32 noundef %156, i32 noundef 4, i32 noundef 0)
  br label %226

158:                                              ; preds = %31
  %159 = load ptr, ptr %7, align 8
  %160 = load i32, ptr @hf_bgp_ls_tlv_igp_router, align 4
  %161 = load ptr, ptr %6, align 8
  %162 = load i32, ptr %8, align 4
  %163 = load i16, ptr %11, align 2
  %164 = zext i16 %163 to i32
  %165 = add i32 %164, 4
  %166 = call ptr @proto_tree_add_item(ptr noundef %159, i32 noundef %160, ptr noundef %161, i32 noundef %162, i32 noundef %165, i32 noundef 0)
  store ptr %166, ptr %14, align 8
  %167 = load ptr, ptr %14, align 8
  %168 = load i32, ptr @ett_bgp_mp_reach_nlri, align 4
  %169 = call ptr @proto_item_add_subtree(ptr noundef %167, i32 noundef %168)
  store ptr %169, ptr %15, align 8
  %170 = load ptr, ptr %15, align 8
  %171 = load i32, ptr @hf_bgp_ls_type, align 4
  %172 = load ptr, ptr %6, align 8
  %173 = load i32, ptr %8, align 4
  %174 = call ptr @proto_tree_add_item(ptr noundef %170, i32 noundef %171, ptr noundef %172, i32 noundef %173, i32 noundef 2, i32 noundef 0)
  %175 = load ptr, ptr %15, align 8
  %176 = load i32, ptr @hf_bgp_ls_length, align 4
  %177 = load ptr, ptr %6, align 8
  %178 = load i32, ptr %8, align 4
  %179 = add i32 %178, 2
  %180 = call ptr @proto_tree_add_item(ptr noundef %175, i32 noundef %176, ptr noundef %177, i32 noundef %179, i32 noundef 2, i32 noundef 0)
  %181 = load ptr, ptr %15, align 8
  %182 = load i32, ptr @hf_bgp_ls_tlv_igp_router_id, align 4
  %183 = load ptr, ptr %6, align 8
  %184 = load i32, ptr %8, align 4
  %185 = add i32 %184, 4
  %186 = load i16, ptr %11, align 2
  %187 = zext i16 %186 to i32
  %188 = call ptr @proto_tree_add_item(ptr noundef %181, i32 noundef %182, ptr noundef %183, i32 noundef %185, i32 noundef %187, i32 noundef 0)
  br label %226

189:                                              ; preds = %31
  %190 = load ptr, ptr %7, align 8
  %191 = load i32, ptr @hf_bgp_ls_tlv_bgp_router_id, align 4
  %192 = load ptr, ptr %6, align 8
  %193 = load i32, ptr %8, align 4
  %194 = load i16, ptr %11, align 2
  %195 = zext i16 %194 to i32
  %196 = add i32 %195, 4
  %197 = call ptr @proto_tree_add_item(ptr noundef %190, i32 noundef %191, ptr noundef %192, i32 noundef %193, i32 noundef %196, i32 noundef 0)
  store ptr %197, ptr %14, align 8
  %198 = load ptr, ptr %14, align 8
  %199 = load i32, ptr @ett_bgp_mp_reach_nlri, align 4
  %200 = call ptr @proto_item_add_subtree(ptr noundef %198, i32 noundef %199)
  store ptr %200, ptr %15, align 8
  %201 = load ptr, ptr %15, align 8
  %202 = load i32, ptr @hf_bgp_ls_type, align 4
  %203 = load ptr, ptr %6, align 8
  %204 = load i32, ptr %8, align 4
  %205 = call ptr @proto_tree_add_item(ptr noundef %201, i32 noundef %202, ptr noundef %203, i32 noundef %204, i32 noundef 2, i32 noundef 0)
  %206 = load ptr, ptr %15, align 8
  %207 = load i32, ptr @hf_bgp_ls_length, align 4
  %208 = load ptr, ptr %6, align 8
  %209 = load i32, ptr %8, align 4
  %210 = add i32 %209, 2
  %211 = call ptr @proto_tree_add_item(ptr noundef %206, i32 noundef %207, ptr noundef %208, i32 noundef %210, i32 noundef 2, i32 noundef 0)
  %212 = load ptr, ptr %15, align 8
  %213 = load i32, ptr @hf_bgp_ls_tlv_bgp_router_id_id, align 4
  %214 = load ptr, ptr %6, align 8
  %215 = load i32, ptr %8, align 4
  %216 = add i32 %215, 4
  %217 = load i16, ptr %11, align 2
  %218 = zext i16 %217 to i32
  %219 = call ptr @proto_tree_add_item(ptr noundef %212, i32 noundef %213, ptr noundef %214, i32 noundef %216, i32 noundef %218, i32 noundef 0)
  br label %226

220:                                              ; preds = %31
  %221 = load ptr, ptr %9, align 8
  %222 = load ptr, ptr %7, align 8
  %223 = load i16, ptr %12, align 2
  %224 = zext i16 %223 to i32
  %225 = call ptr (ptr, ptr, ptr, ptr, ...) @expert_add_info_format(ptr noundef %221, ptr noundef %222, ptr noundef @ei_bgp_ls_warn, ptr noundef @.str.1905, i32 noundef %224)
  br label %226

226:                                              ; preds = %220, %189, %158, %151, %145, %112, %106, %73, %67
  %227 = load i16, ptr %11, align 2
  %228 = zext i16 %227 to i32
  %229 = add i32 4, %228
  %230 = load i32, ptr %10, align 4
  %231 = sub i32 %230, %229
  store i32 %231, ptr %10, align 4
  %232 = load i16, ptr %11, align 2
  %233 = zext i16 %232 to i32
  %234 = add i32 4, %233
  %235 = load i32, ptr %8, align 4
  %236 = add i32 %235, %234
  store i32 %236, ptr %8, align 4
  %237 = load i16, ptr %11, align 2
  %238 = zext i16 %237 to i32
  %239 = add i32 4, %238
  %240 = load i16, ptr %13, align 2
  %241 = zext i16 %240 to i32
  %242 = add i32 %241, %239
  %243 = trunc i32 %242 to i16
  store i16 %243, ptr %13, align 2
  br label %16, !llvm.loop !67

244:                                              ; preds = %22, %16
  %245 = load i16, ptr %13, align 2
  %246 = zext i16 %245 to i32
  call void @llvm.lifetime.end.p0(i64 8, ptr %15) #6
  call void @llvm.lifetime.end.p0(i64 8, ptr %14) #6
  call void @llvm.lifetime.end.p0(i64 2, ptr %13) #6
  call void @llvm.lifetime.end.p0(i64 2, ptr %12) #6
  call void @llvm.lifetime.end.p0(i64 2, ptr %11) #6
  ret i32 %246
}