; Function Attrs: null_pointer_is_valid sspstrong uwtable
define internal fastcc void @decode_bgp_link_node_descriptor(ptr noundef %0, ptr noundef %1, i32 noundef %2, ptr noundef %3, i32 noundef range(i32 0, 65536) %4) unnamed_addr #0 {
  %.not116 = icmp eq i32 %4, 0
  br i1 %.not116, label %.loopexit, label %.lr.ph

.lr.ph:                                           ; preds = %5, %95
  %.0104114 = phi i32 [ %97, %95 ], [ %2, %5 ]
  %.0105113 = phi i32 [ %96, %95 ], [ %4, %5 ]
  %6 = icmp samesign ult i32 %.0105113, 4
  br i1 %6, label %7, label %9

7:                                                ; preds = %.lr.ph
  %8 = tail call ptr (ptr, ptr, ptr, ptr, ...) @expert_add_info_format(ptr noundef %3, ptr noundef %1, ptr noundef nonnull @ei_bgp_ls_error, ptr noundef nonnull @.str.1838)
  br label %.loopexit

9:                                                ; preds = %.lr.ph
  %10 = tail call zeroext i16 @tvb_get_ntohs(ptr noundef %0, i32 noundef %.0104114)
  %11 = add i32 %.0104114, 2
  %12 = tail call zeroext i16 @tvb_get_ntohs(ptr noundef %0, i32 noundef %11)
  switch i16 %10, label %92 [
    i16 512, label %13
    i16 513, label %30
    i16 514, label %47
    i16 515, label %64
    i16 516, label %78
  ]

13:                                               ; preds = %9
  %14 = load i32, ptr @hf_bgp_ls_tlv_autonomous_system, align 4
  %15 = zext i16 %12 to i32
  %16 = add nuw nsw i32 %15, 4
  %17 = tail call ptr @proto_tree_add_item(ptr noundef %1, i32 noundef %14, ptr noundef %0, i32 noundef %.0104114, i32 noundef %16, i32 noundef 0)
  %18 = load i32, ptr @ett_bgp_mp_reach_nlri, align 4
  %19 = tail call ptr @proto_item_add_subtree(ptr noundef %17, i32 noundef %18)
  %20 = load i32, ptr @hf_bgp_ls_type, align 4
  %21 = tail call ptr @proto_tree_add_item(ptr noundef %19, i32 noundef %20, ptr noundef %0, i32 noundef %.0104114, i32 noundef 2, i32 noundef 0)
  %22 = load i32, ptr @hf_bgp_ls_length, align 4
  %23 = tail call ptr @proto_tree_add_item(ptr noundef %19, i32 noundef %22, ptr noundef %0, i32 noundef %11, i32 noundef 2, i32 noundef 0)
  %.not110 = icmp eq i16 %12, 4
  br i1 %.not110, label %26, label %24

24:                                               ; preds = %13
  %25 = tail call ptr (ptr, ptr, ptr, ptr, ...) @expert_add_info_format(ptr noundef %3, ptr noundef %1, ptr noundef nonnull @ei_bgp_ls_error, ptr noundef nonnull @.str.1902, i32 noundef 4, i32 noundef %15)
  br label %95

26:                                               ; preds = %13
  %27 = load i32, ptr @hf_bgp_ls_tlv_autonomous_system_id, align 4
  %28 = add i32 %.0104114, 4
  %29 = tail call ptr @proto_tree_add_item(ptr noundef %19, i32 noundef %27, ptr noundef %0, i32 noundef %28, i32 noundef 4, i32 noundef 0)
  br label %95

30:                                               ; preds = %9
  %31 = load i32, ptr @hf_bgp_ls_tlv_bgp_ls_identifier, align 4
  %32 = zext i16 %12 to i32
  %33 = add nuw nsw i32 %32, 4
  %34 = tail call ptr @proto_tree_add_item(ptr noundef %1, i32 noundef %31, ptr noundef %0, i32 noundef %.0104114, i32 noundef %33, i32 noundef 0)
  %35 = load i32, ptr @ett_bgp_mp_reach_nlri, align 4
  %36 = tail call ptr @proto_item_add_subtree(ptr noundef %34, i32 noundef %35)
  %37 = load i32, ptr @hf_bgp_ls_type, align 4
  %38 = tail call ptr @proto_tree_add_item(ptr noundef %36, i32 noundef %37, ptr noundef %0, i32 noundef %.0104114, i32 noundef 2, i32 noundef 0)
  %39 = load i32, ptr @hf_bgp_ls_length, align 4
  %40 = tail call ptr @proto_tree_add_item(ptr noundef %36, i32 noundef %39, ptr noundef %0, i32 noundef %11, i32 noundef 2, i32 noundef 0)
  %.not109 = icmp eq i16 %12, 4
  br i1 %.not109, label %43, label %41

41:                                               ; preds = %30
  %42 = tail call ptr (ptr, ptr, ptr, ptr, ...) @expert_add_info_format(ptr noundef %3, ptr noundef %1, ptr noundef nonnull @ei_bgp_ls_error, ptr noundef nonnull @.str.1903, i32 noundef 4, i32 noundef %32)
  br label %95

43:                                               ; preds = %30
  %44 = load i32, ptr @hf_bgp_ls_tlv_bgp_ls_identifier_id, align 4
  %45 = add i32 %.0104114, 4
  %46 = tail call ptr @proto_tree_add_item(ptr noundef %36, i32 noundef %44, ptr noundef %0, i32 noundef %45, i32 noundef 4, i32 noundef 0)
  br label %95

47:                                               ; preds = %9
  %48 = load i32, ptr @hf_bgp_ls_tlv_area_id, align 4
  %49 = zext i16 %12 to i32
  %50 = add nuw nsw i32 %49, 4
  %51 = tail call ptr @proto_tree_add_item(ptr noundef %1, i32 noundef %48, ptr noundef %0, i32 noundef %.0104114, i32 noundef %50, i32 noundef 0)
  %52 = load i32, ptr @ett_bgp_mp_reach_nlri, align 4
  %53 = tail call ptr @proto_item_add_subtree(ptr noundef %51, i32 noundef %52)
  %54 = load i32, ptr @hf_bgp_ls_type, align 4
  %55 = tail call ptr @proto_tree_add_item(ptr noundef %53, i32 noundef %54, ptr noundef %0, i32 noundef %.0104114, i32 noundef 2, i32 noundef 0)
  %56 = load i32, ptr @hf_bgp_ls_length, align 4
  %57 = tail call ptr @proto_tree_add_item(ptr noundef %53, i32 noundef %56, ptr noundef %0, i32 noundef %11, i32 noundef 2, i32 noundef 0)
  %.not = icmp eq i16 %12, 4
  br i1 %.not, label %60, label %58

58:                                               ; preds = %47
  %59 = tail call ptr (ptr, ptr, ptr, ptr, ...) @expert_add_info_format(ptr noundef %3, ptr noundef %1, ptr noundef nonnull @ei_bgp_ls_error, ptr noundef nonnull @.str.1904, i32 noundef 4, i32 noundef %49)
  br label %95

60:                                               ; preds = %47
  %61 = load i32, ptr @hf_bgp_ls_tlv_area_id_id, align 4
  %62 = add i32 %.0104114, 4
  %63 = tail call ptr @proto_tree_add_item(ptr noundef %53, i32 noundef %61, ptr noundef %0, i32 noundef %62, i32 noundef 4, i32 noundef 0)
  br label %95

64:                                               ; preds = %9
  %65 = load i32, ptr @hf_bgp_ls_tlv_igp_router, align 4
  %66 = zext i16 %12 to i32
  %67 = add nuw nsw i32 %66, 4
  %68 = tail call ptr @proto_tree_add_item(ptr noundef %1, i32 noundef %65, ptr noundef %0, i32 noundef %.0104114, i32 noundef %67, i32 noundef 0)
  %69 = load i32, ptr @ett_bgp_mp_reach_nlri, align 4
  %70 = tail call ptr @proto_item_add_subtree(ptr noundef %68, i32 noundef %69)
  %71 = load i32, ptr @hf_bgp_ls_type, align 4
  %72 = tail call ptr @proto_tree_add_item(ptr noundef %70, i32 noundef %71, ptr noundef %0, i32 noundef %.0104114, i32 noundef 2, i32 noundef 0)
  %73 = load i32, ptr @hf_bgp_ls_length, align 4
  %74 = tail call ptr @proto_tree_add_item(ptr noundef %70, i32 noundef %73, ptr noundef %0, i32 noundef %11, i32 noundef 2, i32 noundef 0)
  %75 = load i32, ptr @hf_bgp_ls_tlv_igp_router_id, align 4
  %76 = add i32 %.0104114, 4
  %77 = tail call ptr @proto_tree_add_item(ptr noundef %70, i32 noundef %75, ptr noundef %0, i32 noundef %76, i32 noundef %66, i32 noundef 0)
  br label %95

78:                                               ; preds = %9
  %79 = load i32, ptr @hf_bgp_ls_tlv_bgp_router_id, align 4
  %80 = zext i16 %12 to i32
  %81 = add nuw nsw i32 %80, 4
  %82 = tail call ptr @proto_tree_add_item(ptr noundef %1, i32 noundef %79, ptr noundef %0, i32 noundef %.0104114, i32 noundef %81, i32 noundef 0)
  %83 = load i32, ptr @ett_bgp_mp_reach_nlri, align 4
  %84 = tail call ptr @proto_item_add_subtree(ptr noundef %82, i32 noundef %83)
  %85 = load i32, ptr @hf_bgp_ls_type, align 4
  %86 = tail call ptr @proto_tree_add_item(ptr noundef %84, i32 noundef %85, ptr noundef %0, i32 noundef %.0104114, i32 noundef 2, i32 noundef 0)
  %87 = load i32, ptr @hf_bgp_ls_length, align 4
  %88 = tail call ptr @proto_tree_add_item(ptr noundef %84, i32 noundef %87, ptr noundef %0, i32 noundef %11, i32 noundef 2, i32 noundef 0)
  %89 = load i32, ptr @hf_bgp_ls_tlv_bgp_router_id_id, align 4
  %90 = add i32 %.0104114, 4
  %91 = tail call ptr @proto_tree_add_item(ptr noundef %84, i32 noundef %89, ptr noundef %0, i32 noundef %90, i32 noundef %80, i32 noundef 0)
  br label %95

92:                                               ; preds = %9
  %93 = zext i16 %10 to i32
  %94 = tail call ptr (ptr, ptr, ptr, ptr, ...) @expert_add_info_format(ptr noundef %3, ptr noundef %1, ptr noundef nonnull @ei_bgp_ls_warn, ptr noundef nonnull @.str.1905, i32 noundef %93)
  %.pre = zext i16 %12 to i32
  %.pre119 = add nuw nsw i32 %.pre, 4
  br label %95

95:                                               ; preds = %92, %78, %64, %60, %58, %43, %41, %26, %24
  %.pre-phi120 = phi i32 [ %.pre119, %92 ], [ %81, %78 ], [ %67, %64 ], [ %50, %60 ], [ %50, %58 ], [ %33, %43 ], [ %33, %41 ], [ %16, %26 ], [ %16, %24 ]
  %96 = sub nsw i32 %.0105113, %.pre-phi120
  %97 = add i32 %.pre-phi120, %.0104114
  %98 = icmp sgt i32 %96, 0
  br i1 %98, label %.lr.ph, label %.loopexit, !llvm.loop !78

.loopexit:                                        ; preds = %95, %5, %7
  ret void
}